target datalayout = "e-m:e-p270:32:32-p271:32:32-p272:64:64-i64:64-i128:128-f80:128-n8:16:32:64-S128"
target triple = "x86_64-unknown-linux-gnu"

%struct.PCIDevice = type { %struct.DeviceState, i8, i8, ptr, ptr, ptr, ptr, ptr, i32, %struct.PCIReqIDCache, [64 x i8], [7 x %struct.PCIIORegion], %struct.AddressSpace, %struct.MemoryRegion, %struct.MemoryRegion, ptr, ptr, [3 x ptr], i8, i8, i32, i8, i32, ptr, ptr, ptr, ptr, ptr, ptr, %struct.MemoryRegion, %struct.MemoryRegion, %struct.MemoryRegion, ptr, i8, i32, i8, %struct.PCIExpressDevice, ptr, ptr, i32, i8, %struct.MemoryRegion, i32, ptr, ptr, ptr, ptr, ptr, i32 }
%struct.DeviceState = type { %struct.Object, ptr, ptr, i8, i8, i64, ptr, i32, i8, ptr, %struct.NamedGPIOListHead, %struct.NamedClockListHead, %struct.BusStateHead, i32, i32, i32, %struct.ResettableState, ptr, %struct.MemReentrancyGuard }
%struct.Object = type { ptr, ptr, ptr, i32, ptr }
%struct.NamedGPIOListHead = type { ptr }
%struct.NamedClockListHead = type { ptr }
%struct.BusStateHead = type { ptr }
%struct.ResettableState = type { i32, i8, i8 }
%struct.MemReentrancyGuard = type { i8 }
%struct.PCIReqIDCache = type { ptr, i32 }
%struct.PCIIORegion = type { i64, i64, i8, ptr, ptr }
%struct.AddressSpace = type { %struct.rcu_head, ptr, ptr, ptr, i32, i32, ptr, %union.anon, %union.anon.0 }
%struct.rcu_head = type { ptr, ptr }
%union.anon = type { %struct.QTailQLink }
%struct.QTailQLink = type { ptr, ptr }
%union.anon.0 = type { %struct.QTailQLink }
%struct.PCIExpressDevice = type { i8, i8, i8, i16, %struct.PCIEAERLog, i16, i16, i16, %struct.PCIESriovPF, %struct.PCIESriovVF }
%struct.PCIEAERLog = type { i16, i16, ptr }
%struct.PCIESriovPF = type { i16, [7 x i8], ptr, ptr }
%struct.PCIESriovVF = type { ptr, i16 }
%struct.MemoryRegion = type { %struct.Object, i8, i8, i8, i8, i8, i8, i8, i8, i8, i8, ptr, ptr, ptr, ptr, ptr, ptr, i32, i128, i64, ptr, i64, i8, i8, i8, i8, i8, ptr, i64, i32, %union.anon.1, %union.anon.2, %union.anon.3, ptr, i32, ptr, ptr, i8 }
%union.anon.1 = type { %struct.QTailQLink }
%union.anon.2 = type { %struct.QTailQLink }
%union.anon.3 = type { %struct.QTailQLink }
%struct.timeval = type { i64, i64 }

@trace_events_enabled_count = external global i32, align 4
@_TRACE_E1000X_RX_CAN_RECV_DISABLED_DSTATE = external global i16, align 2
@message_with_timestamp = external global i8, align 1
@.str = private unnamed_addr constant [84 x i8] c"%d@%zu.%06zu:e1000x_rx_can_recv_disabled link_up: %d, rx_enabled %d, pci_master %d\0A\00", align 1
@.str.1 = private unnamed_addr constant [71 x i8] c"e1000x_rx_can_recv_disabled link_up: %d, rx_enabled %d, pci_master %d\0A\00", align 1
@qemu_loglevel = external global i32, align 4

; Function Attrs: nounwind sspstrong uwtable
define internal zeroext i1 @qemu_loglevel_mask(i32 noundef %mask) #0 {
entry:
  %mask.addr = alloca i32, align 4
  store i32 %mask, ptr %mask.addr, align 4
  %0 = load i32, ptr @qemu_loglevel, align 4
  %1 = load i32, ptr %mask.addr, align 4
  %and = and i32 %0, %1
  %cmp = icmp ne i32 %and, 0
  ret i1 %cmp
}

; Function Attrs: nounwind sspstrong uwtable
define internal void @_nocheck__trace_e1000x_rx_can_recv_disabled(i1 noundef zeroext %link_up, i1 noundef zeroext %rx_enabled, i1 noundef zeroext %pci_master) #0 {
entry:
  %link_up.addr = alloca i8, align 1
  %rx_enabled.addr = alloca i8, align 1
  %pci_master.addr = alloca i8, align 1
  %_now = alloca %struct.timeval, align 8
  %frombool = zext i1 %link_up to i8
  store i8 %frombool, ptr %link_up.addr, align 1
  %frombool1 = zext i1 %rx_enabled to i8
  store i8 %frombool1, ptr %rx_enabled.addr, align 1
  %frombool2 = zext i1 %pci_master to i8
  store i8 %frombool2, ptr %pci_master.addr, align 1
  %0 = load i32, ptr @trace_events_enabled_count, align 4
  %tobool = icmp ne i32 %0, 0
  %lnot = xor i1 %tobool, true
  %lnot3 = xor i1 %lnot, true
  %lnot.ext = zext i1 %lnot3 to i32
  %conv = sext i32 %lnot.ext to i64
  %tobool4 = icmp ne i64 %conv, 0
  br i1 %tobool4, label %land.lhs.true, label %if.end25

land.lhs.true:                                    ; preds = %entry
  %1 = load i16, ptr @_TRACE_E1000X_RX_CAN_RECV_DISABLED_DSTATE, align 2
  %conv5 = zext i16 %1 to i32
  %tobool6 = icmp ne i32 %conv5, 0
  br i1 %tobool6, label %land.lhs.true7, label %if.end25

land.lhs.true7:                                   ; preds = %land.lhs.true
  %call = call zeroext i1 @qemu_loglevel_mask(i32 noundef 32768)
  br i1 %call, label %if.then, label %if.end25

if.then:                                          ; preds = %land.lhs.true7
  %2 = load i8, ptr @message_with_timestamp, align 1
  %tobool9 = trunc i8 %2 to i1
  br i1 %tobool9, label %if.then10, label %if.else

if.then10:                                        ; preds = %if.then
  %call11 = call i32 @gettimeofday(ptr noundef %_now, ptr noundef null) #7
  %call12 = call i32 @qemu_get_thread_id()
  %tv_sec = getelementptr inbounds %struct.timeval, ptr %_now, i32 0, i32 0
  %3 = load i64, ptr %tv_sec, align 8
  %tv_usec = getelementptr inbounds %struct.timeval, ptr %_now, i32 0, i32 1
  %4 = load i64, ptr %tv_usec, align 8
  %5 = load i8, ptr %link_up.addr, align 1
  %tobool13 = trunc i8 %5 to i1
  %conv14 = zext i1 %tobool13 to i32
  %6 = load i8, ptr %rx_enabled.addr, align 1
  %tobool15 = trunc i8 %6 to i1
  %conv16 = zext i1 %tobool15 to i32
  %7 = load i8, ptr %pci_master.addr, align 1
  %tobool17 = trunc i8 %7 to i1
  %conv18 = zext i1 %tobool17 to i32
  call void (ptr, ...) @qemu_log(ptr noundef @.str, i32 noundef %call12, i64 noundef %3, i64 noundef %4, i32 noundef %conv14, i32 noundef %conv16, i32 noundef %conv18)
  br label %if.end

if.else:                                          ; preds = %if.then
  %8 = load i8, ptr %link_up.addr, align 1
  %tobool19 = trunc i8 %8 to i1
  %conv20 = zext i1 %tobool19 to i32
  %9 = load i8, ptr %rx_enabled.addr, align 1
  %tobool21 = trunc i8 %9 to i1
  %conv22 = zext i1 %tobool21 to i32
  %10 = load i8, ptr %pci_master.addr, align 1
  %tobool23 = trunc i8 %10 to i1
  %conv24 = zext i1 %tobool23 to i32
  call void (ptr, ...) @qemu_log(ptr noundef @.str.1, i32 noundef %conv20, i32 noundef %conv22, i32 noundef %conv24)
  br label %if.end

if.end:                                           ; preds = %if.else, %if.then10
  br label %if.end25

if.end25:                                         ; preds = %if.end, %land.lhs.true7, %land.lhs.true, %entry
  ret void
}

; Function Attrs: nounwind sspstrong uwtable
define internal void @trace_e1000x_rx_can_recv_disabled(i1 noundef zeroext %link_up, i1 noundef zeroext %rx_enabled, i1 noundef zeroext %pci_master) #0 {
entry:
  %link_up.addr = alloca i8, align 1
  %rx_enabled.addr = alloca i8, align 1
  %pci_master.addr = alloca i8, align 1
  %frombool = zext i1 %link_up to i8
  store i8 %frombool, ptr %link_up.addr, align 1
  %frombool1 = zext i1 %rx_enabled to i8
  store i8 %frombool1, ptr %rx_enabled.addr, align 1
  %frombool2 = zext i1 %pci_master to i8
  store i8 %frombool2, ptr %pci_master.addr, align 1
  %0 = load i8, ptr %link_up.addr, align 1
  %tobool = trunc i8 %0 to i1
  %1 = load i8, ptr %rx_enabled.addr, align 1
  %tobool3 = trunc i8 %1 to i1
  %2 = load i8, ptr %pci_master.addr, align 1
  %tobool4 = trunc i8 %2 to i1
  call void @_nocheck__trace_e1000x_rx_can_recv_disabled(i1 noundef zeroext %tobool, i1 noundef zeroext %tobool3, i1 noundef zeroext %tobool4)
  ret void
}

; Function Attrs: nounwind sspstrong uwtable
define dso_local zeroext i1 @e1000x_rx_ready(ptr noundef %d, ptr noundef %mac) #0 {
entry:
  %retval = alloca i1, align 1
  %d.addr = alloca ptr, align 8
  %mac.addr = alloca ptr, align 8
  %link_up = alloca i8, align 1
  %rx_enabled = alloca i8, align 1
  %pci_master = alloca i8, align 1
  store ptr %d, ptr %d.addr, align 8
  store ptr %mac, ptr %mac.addr, align 8
  %0 = load ptr, ptr %mac.addr, align 8
  %arrayidx = getelementptr i32, ptr %0, i64 2
  %1 = load i32, ptr %arrayidx, align 4
  %and = and i32 %1, 2
  %tobool = icmp ne i32 %and, 0
  %frombool = zext i1 %tobool to i8
  store i8 %frombool, ptr %link_up, align 1
  %2 = load ptr, ptr %mac.addr, align 8
  %arrayidx1 = getelementptr i32, ptr %2, i64 64
  %3 = load i32, ptr %arrayidx1, align 4
  %and2 = and i32 %3, 2
  %tobool3 = icmp ne i32 %and2, 0
  %frombool4 = zext i1 %tobool3 to i8
  store i8 %frombool4, ptr %rx_enabled, align 1
  %4 = load ptr, ptr %d.addr, align 8
  %config = getelementptr inbounds %struct.PCIDevice, ptr %4, i32 0, i32 3
  %5 = load ptr, ptr %config, align 8
  %arrayidx5 = getelementptr i8, ptr %5, i64 4
  %6 = load i8, ptr %arrayidx5, align 1
  %conv = zext i8 %6 to i32
  %and6 = and i32 %conv, 4
  %tobool7 = icmp ne i32 %and6, 0
  %frombool8 = zext i1 %tobool7 to i8
  store i8 %frombool8, ptr %pci_master, align 1
  %7 = load i8, ptr %link_up, align 1
  %tobool9 = trunc i8 %7 to i1
  br i1 %tobool9, label %lor.lhs.false, label %if.then

lor.lhs.false:                                    ; preds = %entry
  %8 = load i8, ptr %rx_enabled, align 1
  %tobool10 = trunc i8 %8 to i1
  br i1 %tobool10, label %lor.lhs.false11, label %if.then

lor.lhs.false11:                                  ; preds = %lor.lhs.false
  %9 = load i8, ptr %pci_master, align 1
  %tobool12 = trunc i8 %9 to i1
  br i1 %tobool12, label %if.end, label %if.then

if.then:                                          ; preds = %lor.lhs.false11, %lor.lhs.false, %entry
  %10 = load i8, ptr %link_up, align 1
  %tobool13 = trunc i8 %10 to i1
  %11 = load i8, ptr %rx_enabled, align 1
  %tobool14 = trunc i8 %11 to i1
  %12 = load i8, ptr %pci_master, align 1
  %tobool15 = trunc i8 %12 to i1
  call void @trace_e1000x_rx_can_recv_disabled(i1 noundef zeroext %tobool13, i1 noundef zeroext %tobool14, i1 noundef zeroext %tobool15)
  store i1 false, ptr %retval, align 1
  br label %return

if.end:                                           ; preds = %lor.lhs.false11
  store i1 true, ptr %retval, align 1
  br label %return

return:                                           ; preds = %if.end, %if.then
  %13 = load i1, ptr %retval, align 1
  ret i1 %13
}