; Function Attrs: nounwind sspstrong uwtable
define dso_local noundef zeroext i1 @e1000x_rx_ready(ptr noundef readonly captures(none) %d, ptr noundef readonly captures(none) %mac) local_unnamed_addr #0 {
entry:
  %_now.i.i = alloca %struct.timeval, align 8
  %arrayidx = getelementptr i8, ptr %mac, i64 8
  %0 = load i32, ptr %arrayidx, align 4
  %and = and i32 %0, 2
  %tobool = icmp ne i32 %and, 0
  %arrayidx1 = getelementptr i8, ptr %mac, i64 256
  %1 = load i32, ptr %arrayidx1, align 4
  %and2 = and i32 %1, 2
  %tobool3 = icmp ne i32 %and2, 0
  %config = getelementptr inbounds nuw i8, ptr %d, i64 168
  %2 = load ptr, ptr %config, align 8
  %arrayidx5 = getelementptr i8, ptr %2, i64 4
  %3 = load i8, ptr %arrayidx5, align 1
  %4 = and i8 %3, 4
  %tobool7 = icmp ne i8 %4, 0
  %5 = select i1 %tobool, i1 %tobool3, i1 false
  %6 = select i1 %5, i1 %tobool7, i1 false
  br i1 %6, label %return, label %if.then

if.then:                                          ; preds = %entry
  call void @llvm.lifetime.start.p0(i64 16, ptr nonnull %_now.i.i)
  %7 = load i32, ptr @trace_events_enabled_count, align 4
  %tobool.i.i = icmp ne i32 %7, 0
  %8 = load i16, ptr @_TRACE_E1000X_RX_CAN_RECV_DISABLED_DSTATE, align 2
  %tobool6.i.i = icmp ne i16 %8, 0
  %or.cond.i.i = select i1 %tobool.i.i, i1 %tobool6.i.i, i1 false
  br i1 %or.cond.i.i, label %land.lhs.true7.i.i, label %trace_e1000x_rx_can_recv_disabled.exit

land.lhs.true7.i.i:                               ; preds = %if.then
  %9 = load i32, ptr @qemu_loglevel, align 4
  %and.i.i.i = and i32 %9, 32768
  %cmp.i.not.i.i = icmp eq i32 %and.i.i.i, 0
  br i1 %cmp.i.not.i.i, label %trace_e1000x_rx_can_recv_disabled.exit, label %if.then.i.i

if.then.i.i:                                      ; preds = %land.lhs.true7.i.i
  %10 = load i8, ptr @message_with_timestamp, align 1
  %tobool9.i.i = trunc i8 %10 to i1
  br i1 %tobool9.i.i, label %if.then10.i.i, label %if.else.i.i

if.then10.i.i:                                    ; preds = %if.then.i.i
  %call11.i.i = call i32 @gettimeofday(ptr noundef nonnull %_now.i.i, ptr noundef null) #11
  %call12.i.i = tail call i32 @qemu_get_thread_id() #11
  %11 = load i64, ptr %_now.i.i, align 8
  %tv_usec.i.i = getelementptr inbounds nuw i8, ptr %_now.i.i, i64 8
  %12 = load i64, ptr %tv_usec.i.i, align 8
  %and.lobit6 = lshr exact i32 %and, 1
  %and2.lobit7 = lshr exact i32 %and2, 1
  %.lobit8 = lshr exact i8 %4, 2
  %conv18.i.i = zext nneg i8 %.lobit8 to i32
  tail call void (ptr, ...) @qemu_log(ptr noundef nonnull @.str, i32 noundef %call12.i.i, i64 noundef %11, i64 noundef %12, i32 noundef %and.lobit6, i32 noundef %and2.lobit7, i32 noundef %conv18.i.i) #11
  br label %trace_e1000x_rx_can_recv_disabled.exit

if.else.i.i:                                      ; preds = %if.then.i.i
  %and.lobit = lshr exact i32 %and, 1
  %and2.lobit = lshr exact i32 %and2, 1
  %.lobit = lshr exact i8 %4, 2
  %conv24.i.i = zext nneg i8 %.lobit to i32
  tail call void (ptr, ...) @qemu_log(ptr noundef nonnull @.str.1, i32 noundef %and.lobit, i32 noundef %and2.lobit, i32 noundef %conv24.i.i) #11
  br label %trace_e1000x_rx_can_recv_disabled.exit

trace_e1000x_rx_can_recv_disabled.exit:           ; preds = %if.then, %land.lhs.true7.i.i, %if.then10.i.i, %if.else.i.i
  call void @llvm.lifetime.end.p0(i64 16, ptr nonnull %_now.i.i)
  br label %return

return:                                           ; preds = %entry, %trace_e1000x_rx_can_recv_disabled.exit
  ret i1 %6
}